target datalayout = "e-m:e-p270:32:32-p271:32:32-p272:64:64-i64:64-i128:128-f80:128-n8:16:32:64-S128"
target triple = "x86_64-pc-linux-gnu"

%struct.H5C_cache_entry_t = type { ptr, i64, i64, ptr, i8, ptr, i8, i8, i8, i8, i32, i8, i8, i8, i8, i8, i32, ptr, i32, i32, i32, i32, i32, i8, i8, ptr, ptr, ptr, ptr, ptr, ptr, i8, i32, i8, i64, ptr, i64, i64, i32, i8, i32, i32, i8, ptr, ptr, ptr }

@H5C_init_g = external global i8, align 1
@H5_libterm_g = external global i8, align 1

; Function Attrs: nounwind uwtable
define internal void @H5C__prep_for_file_close__compute_fd_heights_real(ptr noundef %0, i32 noundef %1) #0 {
  %3 = alloca ptr, align 8
  %4 = alloca i32, align 4
  %5 = alloca i32, align 4
  %6 = alloca ptr, align 8
  store ptr %0, ptr %3, align 8, !tbaa !77
  store i32 %1, ptr %4, align 4, !tbaa !54
  %7 = load i8, ptr @H5C_init_g, align 1, !tbaa !8, !range !10, !noundef !11
  %8 = trunc i8 %7 to i1
  br i1 %8, label %13, label %9

9:                                                ; preds = %2
  %10 = load i8, ptr @H5_libterm_g, align 1, !tbaa !8, !range !10, !noundef !11
  %11 = trunc i8 %10 to i1
  %12 = xor i1 %11, true
  br label %13

13:                                               ; preds = %9, %2
  %14 = phi i1 [ true, %2 ], [ %12, %9 ]
  %15 = xor i1 %14, true
  %16 = xor i1 %15, true
  %17 = zext i1 %16 to i32
  %18 = sext i32 %17 to i64
  %19 = call i64 @llvm.expect.i64(i64 %18, i64 1)
  %20 = icmp ne i64 %19, 0
  br i1 %20, label %21, label %65

21:                                               ; preds = %13
  %22 = load i32, ptr %4, align 4, !tbaa !54
  %23 = load ptr, ptr %3, align 8, !tbaa !77
  %24 = getelementptr inbounds nuw %struct.H5C_cache_entry_t, ptr %23, i32 0, i32 38
  store i32 %22, ptr %24, align 8, !tbaa !142
  %25 = load ptr, ptr %3, align 8, !tbaa !77
  %26 = getelementptr inbounds nuw %struct.H5C_cache_entry_t, ptr %25, i32 0, i32 18
  %27 = load i32, ptr %26, align 8, !tbaa !143
  %28 = icmp ugt i32 %27, 0
  br i1 %28, label %29, label %64

29:                                               ; preds = %21
  call void @llvm.lifetime.start.p0(i64 4, ptr %5) #8
  store i32 0, ptr %5, align 4, !tbaa !54
  br label %30

30:                                               ; preds = %60, %29
  %31 = load i32, ptr %5, align 4, !tbaa !54
  %32 = zext i32 %31 to i64
  %33 = load ptr, ptr %3, align 8, !tbaa !77
  %34 = getelementptr inbounds nuw %struct.H5C_cache_entry_t, ptr %33, i32 0, i32 34
  %35 = load i64, ptr %34, align 8, !tbaa !116
  %36 = icmp ult i64 %32, %35
  br i1 %36, label %37, label %63

37:                                               ; preds = %30
  call void @llvm.lifetime.start.p0(i64 8, ptr %6) #8
  %38 = load ptr, ptr %3, align 8, !tbaa !77
  %39 = getelementptr inbounds nuw %struct.H5C_cache_entry_t, ptr %38, i32 0, i32 17
  %40 = load ptr, ptr %39, align 8, !tbaa !144
  %41 = load i32, ptr %5, align 4, !tbaa !54
  %42 = zext i32 %41 to i64
  %43 = getelementptr inbounds nuw ptr, ptr %40, i64 %42
  %44 = load ptr, ptr %43, align 8, !tbaa !77
  store ptr %44, ptr %6, align 8, !tbaa !77
  %45 = load ptr, ptr %6, align 8, !tbaa !77
  %46 = getelementptr inbounds nuw %struct.H5C_cache_entry_t, ptr %45, i32 0, i32 31
  %47 = load i8, ptr %46, align 8, !tbaa !139, !range !10, !noundef !11
  %48 = trunc i8 %47 to i1
  br i1 %48, label %49, label %59

49:                                               ; preds = %37
  %50 = load ptr, ptr %6, align 8, !tbaa !77
  %51 = getelementptr inbounds nuw %struct.H5C_cache_entry_t, ptr %50, i32 0, i32 38
  %52 = load i32, ptr %51, align 8, !tbaa !142
  %53 = load i32, ptr %4, align 4, !tbaa !54
  %54 = icmp ule i32 %52, %53
  br i1 %54, label %55, label %59

55:                                               ; preds = %49
  %56 = load ptr, ptr %6, align 8, !tbaa !77
  %57 = load i32, ptr %4, align 4, !tbaa !54
  %58 = add i32 %57, 1
  call void @H5C__prep_for_file_close__compute_fd_heights_real(ptr noundef %56, i32 noundef %58)
  br label %59

59:                                               ; preds = %55, %49, %37
  call void @llvm.lifetime.end.p0(i64 8, ptr %6) #8
  br label %60

60:                                               ; preds = %59
  %61 = load i32, ptr %5, align 4, !tbaa !54
  %62 = add i32 %61, 1
  store i32 %62, ptr %5, align 4, !tbaa !54
  br label %30, !llvm.loop !195

63:                                               ; preds = %30
  call void @llvm.lifetime.end.p0(i64 4, ptr %5) #8
  br label %64

64:                                               ; preds = %63, %21
  br label %65

65:                                               ; preds = %64, %13
  ret void
}