; Function Attrs: nofree nosync nounwind memory(readwrite, inaccessiblemem: none) uwtable
define internal fastcc void @H5C__prep_for_file_close__compute_fd_heights_real(ptr noundef captures(none) %0, i32 noundef %1) unnamed_addr #10 {
  %3 = load i8, ptr @H5C_init_g, align 1, !tbaa !3, !range !7, !noundef !8
  %4 = trunc nuw i8 %3 to i1
  %5 = load i8, ptr @H5_libterm_g, align 1, !range !7
  %6 = trunc nuw i8 %5 to i1
  %7 = xor i1 %6, true
  %8 = select i1 %4, i1 true, i1 %7
  br i1 %8, label %9, label %.loopexit, !prof !9

9:                                                ; preds = %2
  %10 = getelementptr inbounds nuw i8, ptr %0, i64 200
  store i32 %1, ptr %10, align 8, !tbaa !161
  %11 = getelementptr inbounds nuw i8, ptr %0, i64 80
  %12 = load i32, ptr %11, align 8, !tbaa !162
  %.not = icmp eq i32 %12, 0
  br i1 %.not, label %.loopexit, label %.preheader

.preheader:                                       ; preds = %9
  %13 = getelementptr inbounds nuw i8, ptr %0, i64 168
  %14 = load i64, ptr %13, align 8, !tbaa !95
  %.not16 = icmp eq i64 %14, 0
  br i1 %.not16, label %.loopexit, label %.lr.ph

.lr.ph:                                           ; preds = %.preheader
  %15 = getelementptr inbounds nuw i8, ptr %0, i64 72
  %16 = add i32 %1, 1
  br label %17

17:                                               ; preds = %.lr.ph, %30
  %18 = phi i64 [ %14, %.lr.ph ], [ %31, %30 ]
  %19 = phi i64 [ 0, %.lr.ph ], [ %33, %30 ]
  %.015 = phi i32 [ 0, %.lr.ph ], [ %32, %30 ]
  %20 = load ptr, ptr %15, align 8, !tbaa !163
  %21 = getelementptr inbounds nuw ptr, ptr %20, i64 %19
  %22 = load ptr, ptr %21, align 8, !tbaa !108
  %23 = getelementptr inbounds nuw i8, ptr %22, i64 152
  %24 = load i8, ptr %23, align 8, !tbaa !159, !range !7, !noundef !8
  %25 = trunc nuw i8 %24 to i1
  br i1 %25, label %26, label %30

26:                                               ; preds = %17
  %27 = getelementptr inbounds nuw i8, ptr %22, i64 200
  %28 = load i32, ptr %27, align 8, !tbaa !161
  %.not14 = icmp ugt i32 %28, %1
  br i1 %.not14, label %30, label %29

29:                                               ; preds = %26
  tail call fastcc void @H5C__prep_for_file_close__compute_fd_heights_real(ptr noundef nonnull %22, i32 noundef %16)
  %.pre = load i64, ptr %13, align 8, !tbaa !95
  br label %30

30:                                               ; preds = %29, %26, %17
  %31 = phi i64 [ %.pre, %29 ], [ %18, %26 ], [ %18, %17 ]
  %32 = add i32 %.015, 1
  %33 = zext i32 %32 to i64
  %34 = icmp ugt i64 %31, %33
  br i1 %34, label %17, label %.loopexit, !llvm.loop !191

.loopexit:                                        ; preds = %30, %.preheader, %9, %2
  ret void
}